; Function Attrs: mustprogress uwtable
define void @_ZN18FilterScriptDialog30on_editParameterButton_clickedEv(ptr noundef nonnull align 8 dereferenceable(64) %0) local_unnamed_addr #9 align 2 personality ptr @__gxx_personality_v0 {
  %2 = alloca %class.QVariant, align 8
  %3 = alloca %class.QString, align 8
  %4 = alloca %class.QString, align 8
  %5 = alloca %class.QString, align 8
  %6 = getelementptr inbounds i8, ptr %0, i64 48
  %7 = load ptr, ptr %6, align 8
  %8 = getelementptr inbounds i8, ptr %7, i64 8
  %9 = load ptr, ptr %8, align 8
  %10 = tail call noundef i32 @_ZNK11QListWidget10currentRowEv(ptr noundef nonnull align 8 dereferenceable(48) %9)
  %11 = icmp eq i32 %10, -1
  br i1 %11, label %_ZN7QStringD2Ev.exit20, label %12

12:                                               ; preds = %1
  %13 = load ptr, ptr %6, align 8
  %14 = getelementptr inbounds i8, ptr %13, i64 8
  %15 = load ptr, ptr %14, align 8
  %16 = tail call noundef ptr @_ZNK11QListWidget11currentItemEv(ptr noundef nonnull align 8 dereferenceable(48) %15)
  call void @llvm.lifetime.start.p0(i64 16, ptr nonnull %2)
  %17 = load ptr, ptr %16, align 8, !noalias !47
  %18 = getelementptr inbounds i8, ptr %17, i64 32
  %19 = load ptr, ptr %18, align 8, !noalias !47
  call void %19(ptr dead_on_unwind nonnull writable sret(%class.QVariant) align 8 %2, ptr noundef nonnull align 8 dereferenceable(44) %16, i32 noundef 0), !noalias !47
  invoke void @_ZNK8QVariant8toStringEv(ptr dead_on_unwind nonnull writable sret(%class.QString) align 8 %3, ptr noundef nonnull align 8 dereferenceable(16) %2)
          to label %_ZNK15QListWidgetItem4textEv.exit unwind label %20

common.resume:                                    ; preds = %60, %20
  %common.resume.op = phi { ptr, i32 } [ %21, %20 ], [ %.pn13, %60 ]
  resume { ptr, i32 } %common.resume.op

20:                                               ; preds = %12
  %21 = landingpad { ptr, i32 }
          cleanup
  call void @_ZN8QVariantD1Ev(ptr noundef nonnull align 8 dereferenceable(16) %2) #18
  br label %common.resume

_ZNK15QListWidgetItem4textEv.exit:                ; preds = %12
  call void @_ZN8QVariantD1Ev(ptr noundef nonnull align 8 dereferenceable(16) %2) #18
  call void @llvm.lifetime.end.p0(i64 16, ptr nonnull %2)
  %22 = getelementptr inbounds i8, ptr %0, i64 56
  %23 = load ptr, ptr %22, align 8
  %24 = getelementptr inbounds i8, ptr %23, i64 16
  %25 = load ptr, ptr %24, align 8
  %26 = getelementptr inbounds i8, ptr %25, i64 16
  %27 = getelementptr inbounds i8, ptr %25, i64 8
  %28 = load i32, ptr %27, align 8
  %29 = sext i32 %28 to i64
  %30 = getelementptr inbounds ptr, ptr %26, i64 %29
  %31 = sext i32 %10 to i64
  %32 = getelementptr inbounds ptr, ptr %30, i64 %31
  %33 = load ptr, ptr %32, align 8
  %34 = load ptr, ptr %33, align 8
  %35 = load ptr, ptr %34, align 8
  invoke void %35(ptr dead_on_unwind nonnull writable sret(%class.QString) align 8 %4, ptr noundef nonnull align 8 dereferenceable(40) %33)
          to label %36 unwind label %43

36:                                               ; preds = %_ZNK15QListWidgetItem4textEv.exit
  %37 = call noundef zeroext i1 @_ZeqRK7QStringS1_(ptr noundef nonnull align 8 dereferenceable(8) %4, ptr noundef nonnull align 8 dereferenceable(8) %3) #18
  %38 = load ptr, ptr %4, align 8
  %39 = load atomic i32, ptr %38 monotonic, align 4
  switch i32 %39, label %_ZN9QtPrivate8RefCount5derefEv.exit.i [
    i32 0, label %_ZN9QtPrivate8RefCount5derefEv.exit.thread2.i
    i32 -1, label %_ZN7QStringD2Ev.exit
  ]

_ZN9QtPrivate8RefCount5derefEv.exit.i:            ; preds = %36
  %40 = atomicrmw sub ptr %38, i32 1 seq_cst, align 4
  %.not.i = icmp eq i32 %40, 1
  br i1 %.not.i, label %_ZN9QtPrivate8RefCount5derefEv.exit._ZN9QtPrivate8RefCount5derefEv.exit.thread2_crit_edge.i, label %_ZN7QStringD2Ev.exit

_ZN9QtPrivate8RefCount5derefEv.exit._ZN9QtPrivate8RefCount5derefEv.exit.thread2_crit_edge.i: ; preds = %_ZN9QtPrivate8RefCount5derefEv.exit.i
  %.pre.i = load ptr, ptr %4, align 8
  br label %_ZN9QtPrivate8RefCount5derefEv.exit.thread2.i

_ZN9QtPrivate8RefCount5derefEv.exit.thread2.i:    ; preds = %_ZN9QtPrivate8RefCount5derefEv.exit._ZN9QtPrivate8RefCount5derefEv.exit.thread2_crit_edge.i, %36
  %41 = phi ptr [ %.pre.i, %_ZN9QtPrivate8RefCount5derefEv.exit._ZN9QtPrivate8RefCount5derefEv.exit.thread2_crit_edge.i ], [ %38, %36 ]
  call void @_ZN10QArrayData10deallocateEPS_mm(ptr noundef %41, i64 noundef 2, i64 noundef 8) #18
  br label %_ZN7QStringD2Ev.exit

_ZN7QStringD2Ev.exit:                             ; preds = %36, %_ZN9QtPrivate8RefCount5derefEv.exit.i, %_ZN9QtPrivate8RefCount5derefEv.exit.thread2.i
  br i1 %37, label %42, label %45

42:                                               ; preds = %_ZN7QStringD2Ev.exit
  invoke void @_ZN18FilterScriptDialog17editOldParametersEi(ptr noundef nonnull align 8 dereferenceable(64) %0, i32 noundef %10)
          to label %55 unwind label %43

43:                                               ; preds = %42, %_ZNK15QListWidgetItem4textEv.exit
  %44 = landingpad { ptr, i32 }
          cleanup
  br label %60

45:                                               ; preds = %_ZN7QStringD2Ev.exit
  %46 = call ptr @__cxa_allocate_exception(i64 24) #18
  %47 = invoke noundef ptr @_ZN7QString16fromAscii_helperEPKci(ptr noundef nonnull @.str.44, i32 noundef 129)
          to label %48 unwind label %.thread

48:                                               ; preds = %45
  store ptr %47, ptr %5, align 8
  invoke void @_ZN11MLExceptionC2ERK7QString(ptr noundef nonnull align 8 dereferenceable(24) %46, ptr noundef nonnull align 8 dereferenceable(8) %5)
          to label %50 unwind label %.thread24

.thread24:                                        ; preds = %48
  %49 = landingpad { ptr, i32 }
          cleanup
  call void @_ZN7QStringD2Ev(ptr noundef nonnull align 8 dereferenceable(8) %5) #18
  br label %54

50:                                               ; preds = %48
  invoke void @__cxa_throw(ptr nonnull %46, ptr nonnull @_ZTI11MLException, ptr nonnull @_ZN11MLExceptionD2Ev) #22
          to label %61 unwind label %52

.thread:                                          ; preds = %45
  %51 = landingpad { ptr, i32 }
          cleanup
  br label %54

52:                                               ; preds = %50
  %53 = landingpad { ptr, i32 }
          cleanup
  call void @_ZN7QStringD2Ev(ptr noundef nonnull align 8 dereferenceable(8) %5) #18
  br label %60

54:                                               ; preds = %.thread24, %.thread
  %.pn23 = phi { ptr, i32 } [ %51, %.thread ], [ %49, %.thread24 ]
  call void @__cxa_free_exception(ptr %46) #18
  br label %60

55:                                               ; preds = %42
  %56 = load ptr, ptr %3, align 8
  %57 = load atomic i32, ptr %56 monotonic, align 4
  switch i32 %57, label %_ZN9QtPrivate8RefCount5derefEv.exit.i16 [
    i32 0, label %_ZN9QtPrivate8RefCount5derefEv.exit.thread2.i15
    i32 -1, label %_ZN7QStringD2Ev.exit20
  ]

_ZN9QtPrivate8RefCount5derefEv.exit.i16:          ; preds = %55
  %58 = atomicrmw sub ptr %56, i32 1 seq_cst, align 4
  %.not.i17 = icmp eq i32 %58, 1
  br i1 %.not.i17, label %_ZN9QtPrivate8RefCount5derefEv.exit._ZN9QtPrivate8RefCount5derefEv.exit.thread2_crit_edge.i18, label %_ZN7QStringD2Ev.exit20

_ZN9QtPrivate8RefCount5derefEv.exit._ZN9QtPrivate8RefCount5derefEv.exit.thread2_crit_edge.i18: ; preds = %_ZN9QtPrivate8RefCount5derefEv.exit.i16
  %.pre.i19 = load ptr, ptr %3, align 8
  br label %_ZN9QtPrivate8RefCount5derefEv.exit.thread2.i15

_ZN9QtPrivate8RefCount5derefEv.exit.thread2.i15:  ; preds = %_ZN9QtPrivate8RefCount5derefEv.exit._ZN9QtPrivate8RefCount5derefEv.exit.thread2_crit_edge.i18, %55
  %59 = phi ptr [ %.pre.i19, %_ZN9QtPrivate8RefCount5derefEv.exit._ZN9QtPrivate8RefCount5derefEv.exit.thread2_crit_edge.i18 ], [ %56, %55 ]
  call void @_ZN10QArrayData10deallocateEPS_mm(ptr noundef %59, i64 noundef 2, i64 noundef 8) #18
  br label %_ZN7QStringD2Ev.exit20

_ZN7QStringD2Ev.exit20:                           ; preds = %_ZN9QtPrivate8RefCount5derefEv.exit.thread2.i15, %_ZN9QtPrivate8RefCount5derefEv.exit.i16, %55, %1
  ret void

60:                                               ; preds = %52, %54, %43
  %.pn13 = phi { ptr, i32 } [ %44, %43 ], [ %.pn23, %54 ], [ %53, %52 ]
  call void @_ZN7QStringD2Ev(ptr noundef nonnull align 8 dereferenceable(8) %3) #18
  br label %common.resume

61:                                               ; preds = %50
  unreachable
}